target datalayout = "e-m:e-p270:32:32-p271:32:32-p272:64:64-i64:64-i128:128-f80:128-n8:16:32:64-S128"
target triple = "x86_64-pc-linux-gnu"

%struct.SwsInternal = type { %struct.SwsContext, ptr, ptr, ptr, ptr, i32, [2 x ptr], i32, i32, ptr, i32, i32, i32, i32, i32, i32, i32, i32, i32, i32, i32, i32, i32, i32, i32, i32, i32, i32, ptr, ptr, %struct.RangeList, [3 x ptr], [2 x [4 x i32]], [2 x [4 x ptr]], i32, double, i32, ptr, ptr, i32, [2 x i32], i32, ptr, ptr, [256 x i32], [256 x i32], [256 x float], i32, i32, ptr, i32, ptr, ptr, ptr, ptr, ptr, ptr, ptr, ptr, i32, i32, i32, i32, i32, i32, ptr, ptr, i32, i32, i32, ptr, [8 x i8], [1280 x i32], [1280 x ptr], [1280 x ptr], [1280 x ptr], [176 x i32], [4 x ptr], i32, i32, i32, [4 x i32], [4 x i32], i32, i32, i32, i32, i32, i32, i32, i32, i32, i32, i64, i64, i64, i64, i64, i64, i64, i64, i64, i64, i64, [1024 x i32], [1024 x i32], i32, i64, i64, i64, i64, i64, [1024 x i32], i64, i64, [8 x i16], [8 x i32], ptr, ptr, i32, ptr, ptr, ptr, ptr, [3 x [4 x i16]], [3 x [4 x i16]], ptr, ptr, ptr, ptr, ptr, ptr, ptr, ptr, ptr, ptr, ptr, ptr, ptr, ptr, ptr, ptr, ptr, ptr, ptr, ptr, i32, i32, i64, i64, i32, ptr, i32, ptr, i32, i32, i32, i32, i32, ptr }
%struct.SwsContext = type { ptr, ptr, i32, [2 x double], i32, i32, i32, i32, i32, i32, i32, i32, i32, i32, i32, i32, i32, i32, i32, i32, i32 }
%struct.RangeList = type { ptr, i32, i32 }
%struct.AVPixFmtDescriptor = type { ptr, i8, i8, i8, i64, [4 x %struct.AVComponentDescriptor], ptr }
%struct.AVComponentDescriptor = type { i32, i32, i32, i32, i32 }

@.str.1 = private unnamed_addr constant [30 x i8] c"Assertion %s failed at %s:%d\0A\00", align 1
@.str.12 = private unnamed_addr constant [5 x i8] c"desc\00", align 1
@.str.13 = private unnamed_addr constant [30 x i8] c"libswscale/swscale_internal.h\00", align 1

; Function Attrs: nounwind uwtable
define internal void @solve_range_convert(i16 noundef zeroext %0, i16 noundef zeroext %1, i16 noundef zeroext %2, i16 noundef zeroext %3, i32 noundef %4, i32 noundef %5, i32 noundef %6, ptr noundef %7, ptr noundef %8) #0 {
  %10 = alloca i16, align 2
  %11 = alloca i16, align 2
  %12 = alloca i16, align 2
  %13 = alloca i16, align 2
  %14 = alloca i32, align 4
  %15 = alloca i32, align 4
  %16 = alloca i32, align 4
  %17 = alloca ptr, align 8
  %18 = alloca ptr, align 8
  %19 = alloca i16, align 2
  %20 = alloca i16, align 2
  %21 = alloca i32, align 4
  store i16 %0, ptr %10, align 2, !tbaa !102
  store i16 %1, ptr %11, align 2, !tbaa !102
  store i16 %2, ptr %12, align 2, !tbaa !102
  store i16 %3, ptr %13, align 2, !tbaa !102
  store i32 %4, ptr %14, align 4, !tbaa !14
  store i32 %5, ptr %15, align 4, !tbaa !14
  store i32 %6, ptr %16, align 4, !tbaa !14
  store ptr %7, ptr %17, align 8, !tbaa !12
  store ptr %8, ptr %18, align 8, !tbaa !217
  call void @llvm.lifetime.start.p0(i64 2, ptr %19) #11
  %22 = load i16, ptr %11, align 2, !tbaa !102
  %23 = zext i16 %22 to i32
  %24 = load i16, ptr %10, align 2, !tbaa !102
  %25 = zext i16 %24 to i32
  %26 = sub nsw i32 %23, %25
  %27 = trunc i32 %26 to i16
  store i16 %27, ptr %19, align 2, !tbaa !102
  call void @llvm.lifetime.start.p0(i64 2, ptr %20) #11
  %28 = load i16, ptr %13, align 2, !tbaa !102
  %29 = zext i16 %28 to i32
  %30 = load i16, ptr %12, align 2, !tbaa !102
  %31 = zext i16 %30 to i32
  %32 = sub nsw i32 %29, %31
  %33 = trunc i32 %32 to i16
  store i16 %33, ptr %20, align 2, !tbaa !102
  call void @llvm.lifetime.start.p0(i64 4, ptr %21) #11
  %34 = load i32, ptr %16, align 4, !tbaa !14
  %35 = load i32, ptr %15, align 4, !tbaa !14
  %36 = add nsw i32 %34, %35
  store i32 %36, ptr %21, align 4, !tbaa !14
  %37 = load i32, ptr %15, align 4, !tbaa !14
  %38 = call i1 @llvm.is.constant.i32(i32 %37)
  br i1 %38, label %53, label %39

39:                                               ; preds = %9
  %40 = load i16, ptr %20, align 2, !tbaa !102
  %41 = zext i16 %40 to i64
  %42 = load i32, ptr %21, align 4, !tbaa !14
  %43 = zext i32 %42 to i64
  %44 = shl i64 %41, %43
  %45 = load i16, ptr %19, align 2, !tbaa !102
  %46 = zext i16 %45 to i64
  %47 = udiv i64 %44, %46
  %48 = sub i64 0, %47
  %49 = load i32, ptr %15, align 4, !tbaa !14
  %50 = zext i32 %49 to i64
  %51 = lshr i64 %48, %50
  %52 = sub i64 0, %51
  br label %70

53:                                               ; preds = %9
  %54 = load i16, ptr %20, align 2, !tbaa !102
  %55 = zext i16 %54 to i64
  %56 = load i32, ptr %21, align 4, !tbaa !14
  %57 = zext i32 %56 to i64
  %58 = shl i64 %55, %57
  %59 = load i16, ptr %19, align 2, !tbaa !102
  %60 = zext i16 %59 to i64
  %61 = udiv i64 %58, %60
  %62 = load i32, ptr %15, align 4, !tbaa !14
  %63 = shl i32 1, %62
  %64 = sext i32 %63 to i64
  %65 = add i64 %61, %64
  %66 = sub i64 %65, 1
  %67 = load i32, ptr %15, align 4, !tbaa !14
  %68 = zext i32 %67 to i64
  %69 = lshr i64 %66, %68
  br label %70

70:                                               ; preds = %53, %39
  %71 = phi i64 [ %52, %39 ], [ %69, %53 ]
  %72 = trunc i64 %71 to i32
  %73 = load ptr, ptr %17, align 8, !tbaa !12
  store i32 %72, ptr %73, align 4, !tbaa !14
  %74 = load i16, ptr %13, align 2, !tbaa !102
  %75 = zext i16 %74 to i64
  %76 = load i32, ptr %21, align 4, !tbaa !14
  %77 = zext i32 %76 to i64
  %78 = shl i64 %75, %77
  %79 = load i16, ptr %11, align 2, !tbaa !102
  %80 = zext i16 %79 to i64
  %81 = load i32, ptr %15, align 4, !tbaa !14
  %82 = zext i32 %81 to i64
  %83 = shl i64 %80, %82
  %84 = load ptr, ptr %17, align 8, !tbaa !12
  %85 = load i32, ptr %84, align 4, !tbaa !14
  %86 = zext i32 %85 to i64
  %87 = mul nsw i64 %83, %86
  %88 = sub nsw i64 %78, %87
  %89 = load ptr, ptr %18, align 8, !tbaa !217
  store i64 %88, ptr %89, align 8, !tbaa !105
  call void @llvm.lifetime.end.p0(i64 4, ptr %21) #11
  call void @llvm.lifetime.end.p0(i64 2, ptr %20) #11
  call void @llvm.lifetime.end.p0(i64 2, ptr %19) #11
  ret void
}

; Function Attrs: nounwind uwtable
define internal void @init_range_convert_constants(ptr noundef %0) #0 {
  %2 = alloca ptr, align 8
  %3 = alloca i32, align 4
  %4 = alloca i32, align 4
  %5 = alloca i32, align 4
  %6 = alloca i32, align 4
  %7 = alloca i16, align 2
  %8 = alloca i16, align 2
  %9 = alloca i16, align 2
  %10 = alloca i16, align 2
  %11 = alloca i16, align 2
  %12 = alloca i16, align 2
  %13 = alloca i16, align 2
  %14 = alloca i16, align 2
  %15 = alloca i16, align 2
  %16 = alloca i16, align 2
  store ptr %0, ptr %2, align 8, !tbaa !4
  call void @llvm.lifetime.start.p0(i64 4, ptr %3) #11
  %17 = load ptr, ptr %2, align 8, !tbaa !4
  %18 = getelementptr inbounds nuw %struct.SwsInternal, ptr %17, i32 0, i32 20
  %19 = load i32, ptr %18, align 16, !tbaa !101
  %20 = icmp ne i32 %19, 0
  br i1 %20, label %21, label %33

21:                                               ; preds = %1
  %22 = load ptr, ptr %2, align 8, !tbaa !4
  %23 = getelementptr inbounds nuw %struct.SwsInternal, ptr %22, i32 0, i32 20
  %24 = load i32, ptr %23, align 16, !tbaa !101
  %25 = icmp sgt i32 %24, 16
  br i1 %25, label %26, label %27

26:                                               ; preds = %21
  br label %31

27:                                               ; preds = %21
  %28 = load ptr, ptr %2, align 8, !tbaa !4
  %29 = getelementptr inbounds nuw %struct.SwsInternal, ptr %28, i32 0, i32 20
  %30 = load i32, ptr %29, align 16, !tbaa !101
  br label %31

31:                                               ; preds = %27, %26
  %32 = phi i32 [ 16, %26 ], [ %30, %27 ]
  br label %34

33:                                               ; preds = %1
  br label %34

34:                                               ; preds = %33, %31
  %35 = phi i32 [ %32, %31 ], [ 8, %33 ]
  store i32 %35, ptr %3, align 4, !tbaa !14
  call void @llvm.lifetime.start.p0(i64 4, ptr %4) #11
  %36 = load i32, ptr %3, align 4, !tbaa !14
  %37 = icmp sle i32 %36, 14
  %38 = select i1 %37, i32 15, i32 19
  store i32 %38, ptr %4, align 4, !tbaa !14
  call void @llvm.lifetime.start.p0(i64 4, ptr %5) #11
  %39 = load i32, ptr %4, align 4, !tbaa !14
  %40 = load i32, ptr %3, align 4, !tbaa !14
  %41 = sub nsw i32 %39, %40
  store i32 %41, ptr %5, align 4, !tbaa !14
  call void @llvm.lifetime.start.p0(i64 4, ptr %6) #11
  %42 = load i32, ptr %3, align 4, !tbaa !14
  %43 = icmp sle i32 %42, 14
  %44 = select i1 %43, i32 14, i32 18
  store i32 %44, ptr %6, align 4, !tbaa !14
  call void @llvm.lifetime.start.p0(i64 2, ptr %7) #11
  %45 = load i32, ptr %3, align 4, !tbaa !14
  %46 = sub nsw i32 %45, 8
  %47 = shl i32 16, %46
  %48 = trunc i32 %47 to i16
  store i16 %48, ptr %7, align 2, !tbaa !102
  call void @llvm.lifetime.start.p0(i64 2, ptr %8) #11
  %49 = load i32, ptr %3, align 4, !tbaa !14
  %50 = sub nsw i32 %49, 8
  %51 = shl i32 235, %50
  %52 = trunc i32 %51 to i16
  store i16 %52, ptr %8, align 2, !tbaa !102
  call void @llvm.lifetime.start.p0(i64 2, ptr %9) #11
  %53 = load i32, ptr %3, align 4, !tbaa !14
  %54 = sub nsw i32 %53, 8
  %55 = shl i32 240, %54
  %56 = trunc i32 %55 to i16
  store i16 %56, ptr %9, align 2, !tbaa !102
  call void @llvm.lifetime.start.p0(i64 2, ptr %10) #11
  %57 = load i32, ptr %3, align 4, !tbaa !14
  %58 = shl i32 1, %57
  %59 = sub i32 %58, 1
  %60 = trunc i32 %59 to i16
  store i16 %60, ptr %10, align 2, !tbaa !102
  call void @llvm.lifetime.start.p0(i64 2, ptr %11) #11
  call void @llvm.lifetime.start.p0(i64 2, ptr %12) #11
  call void @llvm.lifetime.start.p0(i64 2, ptr %13) #11
  call void @llvm.lifetime.start.p0(i64 2, ptr %14) #11
  call void @llvm.lifetime.start.p0(i64 2, ptr %15) #11
  call void @llvm.lifetime.start.p0(i64 2, ptr %16) #11
  %61 = load ptr, ptr %2, align 8, !tbaa !4
  %62 = getelementptr inbounds nuw %struct.SwsInternal, ptr %61, i32 0, i32 0
  %63 = getelementptr inbounds nuw %struct.SwsContext, ptr %62, i32 0, i32 14
  %64 = load i32, ptr %63, align 16, !tbaa !99
  %65 = icmp ne i32 %64, 0
  br i1 %65, label %66, label %72

66:                                               ; preds = %34
  store i16 0, ptr %11, align 2, !tbaa !102
  %67 = load i16, ptr %10, align 2, !tbaa !102
  store i16 %67, ptr %12, align 2, !tbaa !102
  %68 = load i16, ptr %10, align 2, !tbaa !102
  store i16 %68, ptr %13, align 2, !tbaa !102
  %69 = load i16, ptr %7, align 2, !tbaa !102
  store i16 %69, ptr %14, align 2, !tbaa !102
  %70 = load i16, ptr %8, align 2, !tbaa !102
  store i16 %70, ptr %15, align 2, !tbaa !102
  %71 = load i16, ptr %9, align 2, !tbaa !102
  store i16 %71, ptr %16, align 2, !tbaa !102
  br label %78

72:                                               ; preds = %34
  %73 = load i16, ptr %7, align 2, !tbaa !102
  store i16 %73, ptr %11, align 2, !tbaa !102
  %74 = load i16, ptr %8, align 2, !tbaa !102
  store i16 %74, ptr %12, align 2, !tbaa !102
  %75 = load i16, ptr %9, align 2, !tbaa !102
  store i16 %75, ptr %13, align 2, !tbaa !102
  store i16 0, ptr %14, align 2, !tbaa !102
  %76 = load i16, ptr %10, align 2, !tbaa !102
  store i16 %76, ptr %15, align 2, !tbaa !102
  %77 = load i16, ptr %10, align 2, !tbaa !102
  store i16 %77, ptr %16, align 2, !tbaa !102
  br label %78

78:                                               ; preds = %72, %66
  %79 = load i16, ptr %11, align 2, !tbaa !102
  %80 = load i16, ptr %12, align 2, !tbaa !102
  %81 = load i16, ptr %14, align 2, !tbaa !102
  %82 = load i16, ptr %15, align 2, !tbaa !102
  %83 = load i32, ptr %4, align 4, !tbaa !14
  %84 = load i32, ptr %5, align 4, !tbaa !14
  %85 = load i32, ptr %6, align 4, !tbaa !14
  %86 = load ptr, ptr %2, align 8, !tbaa !4
  %87 = getelementptr inbounds nuw %struct.SwsInternal, ptr %86, i32 0, i32 146
  %88 = load ptr, ptr %2, align 8, !tbaa !4
  %89 = getelementptr inbounds nuw %struct.SwsInternal, ptr %88, i32 0, i32 148
  call void @solve_range_convert(i16 noundef zeroext %79, i16 noundef zeroext %80, i16 noundef zeroext %81, i16 noundef zeroext %82, i32 noundef %83, i32 noundef %84, i32 noundef %85, ptr noundef %87, ptr noundef %89)
  %90 = load i16, ptr %11, align 2, !tbaa !102
  %91 = load i16, ptr %13, align 2, !tbaa !102
  %92 = load i16, ptr %14, align 2, !tbaa !102
  %93 = load i16, ptr %16, align 2, !tbaa !102
  %94 = load i32, ptr %4, align 4, !tbaa !14
  %95 = load i32, ptr %5, align 4, !tbaa !14
  %96 = load i32, ptr %6, align 4, !tbaa !14
  %97 = load ptr, ptr %2, align 8, !tbaa !4
  %98 = getelementptr inbounds nuw %struct.SwsInternal, ptr %97, i32 0, i32 147
  %99 = load ptr, ptr %2, align 8, !tbaa !4
  %100 = getelementptr inbounds nuw %struct.SwsInternal, ptr %99, i32 0, i32 149
  call void @solve_range_convert(i16 noundef zeroext %90, i16 noundef zeroext %91, i16 noundef zeroext %92, i16 noundef zeroext %93, i32 noundef %94, i32 noundef %95, i32 noundef %96, ptr noundef %98, ptr noundef %100)
  call void @llvm.lifetime.end.p0(i64 2, ptr %16) #11
  call void @llvm.lifetime.end.p0(i64 2, ptr %15) #11
  call void @llvm.lifetime.end.p0(i64 2, ptr %14) #11
  call void @llvm.lifetime.end.p0(i64 2, ptr %13) #11
  call void @llvm.lifetime.end.p0(i64 2, ptr %12) #11
  call void @llvm.lifetime.end.p0(i64 2, ptr %11) #11
  call void @llvm.lifetime.end.p0(i64 2, ptr %10) #11
  call void @llvm.lifetime.end.p0(i64 2, ptr %9) #11
  call void @llvm.lifetime.end.p0(i64 2, ptr %8) #11
  call void @llvm.lifetime.end.p0(i64 2, ptr %7) #11
  call void @llvm.lifetime.end.p0(i64 4, ptr %6) #11
  call void @llvm.lifetime.end.p0(i64 4, ptr %5) #11
  call void @llvm.lifetime.end.p0(i64 4, ptr %4) #11
  call void @llvm.lifetime.end.p0(i64 4, ptr %3) #11
  ret void
}

; Function Attrs: alwaysinline nounwind uwtable
define internal i32 @isAnyRGB(i32 noundef %0) #3 {
  %2 = alloca i32, align 4
  %3 = alloca ptr, align 8
  store i32 %0, ptr %2, align 4, !tbaa !14
  call void @llvm.lifetime.start.p0(i64 8, ptr %3) #11
  %4 = load i32, ptr %2, align 4, !tbaa !14
  %5 = call ptr @av_pix_fmt_desc_get(i32 noundef %4)
  store ptr %5, ptr %3, align 8, !tbaa !83
  br label %6

6:                                                ; preds = %1
  %7 = load ptr, ptr %3, align 8, !tbaa !83
  %8 = icmp ne ptr %7, null
  br i1 %8, label %10, label %9

9:                                                ; preds = %6
  call void (ptr, i32, ptr, ...) @av_log(ptr noundef null, i32 noundef 0, ptr noundef @.str.1, ptr noundef @.str.12, ptr noundef @.str.13, i32 noundef 859)
  call void @abort() #12
  unreachable

10:                                               ; preds = %6
  br label %11

11:                                               ; preds = %10
  br label %12

12:                                               ; preds = %11
  %13 = load ptr, ptr %3, align 8, !tbaa !83
  %14 = getelementptr inbounds nuw %struct.AVPixFmtDescriptor, ptr %13, i32 0, i32 4
  %15 = load i64, ptr %14, align 8, !tbaa !87
  %16 = and i64 %15, 32
  %17 = icmp ne i64 %16, 0
  br i1 %17, label %24, label %18

18:                                               ; preds = %12
  %19 = load i32, ptr %2, align 4, !tbaa !14
  %20 = icmp eq i32 %19, 10
  br i1 %20, label %24, label %21

21:                                               ; preds = %18
  %22 = load i32, ptr %2, align 4, !tbaa !14
  %23 = icmp eq i32 %22, 9
  br label %24

24:                                               ; preds = %21, %18, %12
  %25 = phi i1 [ true, %18 ], [ true, %12 ], [ %23, %21 ]
  %26 = zext i1 %25 to i32
  call void @llvm.lifetime.end.p0(i64 8, ptr %3) #11
  ret i32 %26
}

; Function Attrs: cold nounwind optsize uwtable
define void @ff_sws_init_range_convert(ptr noundef %0) #8 {
  %2 = alloca ptr, align 8
  store ptr %0, ptr %2, align 8, !tbaa !4
  %3 = load ptr, ptr %2, align 8, !tbaa !4
  %4 = getelementptr inbounds nuw %struct.SwsInternal, ptr %3, i32 0, i32 144
  store ptr null, ptr %4, align 8, !tbaa !97
  %5 = load ptr, ptr %2, align 8, !tbaa !4
  %6 = getelementptr inbounds nuw %struct.SwsInternal, ptr %5, i32 0, i32 145
  store ptr null, ptr %6, align 16, !tbaa !98
  %7 = load ptr, ptr %2, align 8, !tbaa !4
  %8 = getelementptr inbounds nuw %struct.SwsInternal, ptr %7, i32 0, i32 0
  %9 = getelementptr inbounds nuw %struct.SwsContext, ptr %8, i32 0, i32 14
  %10 = load i32, ptr %9, align 16, !tbaa !99
  %11 = load ptr, ptr %2, align 8, !tbaa !4
  %12 = getelementptr inbounds nuw %struct.SwsInternal, ptr %11, i32 0, i32 0
  %13 = getelementptr inbounds nuw %struct.SwsContext, ptr %12, i32 0, i32 15
  %14 = load i32, ptr %13, align 4, !tbaa !100
  %15 = icmp ne i32 %10, %14
  br i1 %15, label %16, label %69

16:                                               ; preds = %1
  %17 = load ptr, ptr %2, align 8, !tbaa !4
  %18 = getelementptr inbounds nuw %struct.SwsInternal, ptr %17, i32 0, i32 0
  %19 = getelementptr inbounds nuw %struct.SwsContext, ptr %18, i32 0, i32 13
  %20 = load i32, ptr %19, align 4, !tbaa !34
  %21 = call i32 @isAnyRGB(i32 noundef %20)
  %22 = icmp ne i32 %21, 0
  br i1 %22, label %69, label %23

23:                                               ; preds = %16
  %24 = load ptr, ptr %2, align 8, !tbaa !4
  %25 = getelementptr inbounds nuw %struct.SwsInternal, ptr %24, i32 0, i32 20
  %26 = load i32, ptr %25, align 16, !tbaa !101
  %27 = icmp slt i32 %26, 32
  br i1 %27, label %28, label %69

28:                                               ; preds = %23
  %29 = load ptr, ptr %2, align 8, !tbaa !4
  call void @init_range_convert_constants(ptr noundef %29)
  %30 = load ptr, ptr %2, align 8, !tbaa !4
  %31 = getelementptr inbounds nuw %struct.SwsInternal, ptr %30, i32 0, i32 20
  %32 = load i32, ptr %31, align 16, !tbaa !101
  %33 = icmp sle i32 %32, 14
  br i1 %33, label %34, label %51

34:                                               ; preds = %28
  %35 = load ptr, ptr %2, align 8, !tbaa !4
  %36 = getelementptr inbounds nuw %struct.SwsInternal, ptr %35, i32 0, i32 0
  %37 = getelementptr inbounds nuw %struct.SwsContext, ptr %36, i32 0, i32 14
  %38 = load i32, ptr %37, align 16, !tbaa !99
  %39 = icmp ne i32 %38, 0
  br i1 %39, label %40, label %45

40:                                               ; preds = %34
  %41 = load ptr, ptr %2, align 8, !tbaa !4
  %42 = getelementptr inbounds nuw %struct.SwsInternal, ptr %41, i32 0, i32 144
  store ptr @lumRangeFromJpeg_c, ptr %42, align 8, !tbaa !97
  %43 = load ptr, ptr %2, align 8, !tbaa !4
  %44 = getelementptr inbounds nuw %struct.SwsInternal, ptr %43, i32 0, i32 145
  store ptr @chrRangeFromJpeg_c, ptr %44, align 16, !tbaa !98
  br label %50

45:                                               ; preds = %34
  %46 = load ptr, ptr %2, align 8, !tbaa !4
  %47 = getelementptr inbounds nuw %struct.SwsInternal, ptr %46, i32 0, i32 144
  store ptr @lumRangeToJpeg_c, ptr %47, align 8, !tbaa !97
  %48 = load ptr, ptr %2, align 8, !tbaa !4
  %49 = getelementptr inbounds nuw %struct.SwsInternal, ptr %48, i32 0, i32 145
  store ptr @chrRangeToJpeg_c, ptr %49, align 16, !tbaa !98
  br label %50

50:                                               ; preds = %45, %40
  br label %68

51:                                               ; preds = %28
  %52 = load ptr, ptr %2, align 8, !tbaa !4
  %53 = getelementptr inbounds nuw %struct.SwsInternal, ptr %52, i32 0, i32 0
  %54 = getelementptr inbounds nuw %struct.SwsContext, ptr %53, i32 0, i32 14
  %55 = load i32, ptr %54, align 16, !tbaa !99
  %56 = icmp ne i32 %55, 0
  br i1 %56, label %57, label %62

57:                                               ; preds = %51
  %58 = load ptr, ptr %2, align 8, !tbaa !4
  %59 = getelementptr inbounds nuw %struct.SwsInternal, ptr %58, i32 0, i32 144
  store ptr @lumRangeFromJpeg16_c, ptr %59, align 8, !tbaa !97
  %60 = load ptr, ptr %2, align 8, !tbaa !4
  %61 = getelementptr inbounds nuw %struct.SwsInternal, ptr %60, i32 0, i32 145
  store ptr @chrRangeFromJpeg16_c, ptr %61, align 16, !tbaa !98
  br label %67

62:                                               ; preds = %51
  %63 = load ptr, ptr %2, align 8, !tbaa !4
  %64 = getelementptr inbounds nuw %struct.SwsInternal, ptr %63, i32 0, i32 144
  store ptr @lumRangeToJpeg16_c, ptr %64, align 8, !tbaa !97
  %65 = load ptr, ptr %2, align 8, !tbaa !4
  %66 = getelementptr inbounds nuw %struct.SwsInternal, ptr %65, i32 0, i32 145
  store ptr @chrRangeToJpeg16_c, ptr %66, align 16, !tbaa !98
  br label %67

67:                                               ; preds = %62, %57
  br label %68

68:                                               ; preds = %67, %50
  br label %69

69:                                               ; preds = %68, %23, %16, %1
  ret void
}