; Function Attrs: cold nounwind optsize uwtable
define void @ff_sws_init_range_convert(ptr noundef captures(none) initializes((53112, 53128)) %0) local_unnamed_addr #5 {
  %2 = getelementptr inbounds nuw i8, ptr %0, i64 53112
  %3 = getelementptr inbounds nuw i8, ptr %0, i64 53120
  %4 = getelementptr inbounds nuw i8, ptr %0, i64 80
  tail call void @llvm.memset.p0.i64(ptr noundef nonnull align 8 dereferenceable(16) %2, i8 0, i64 16, i1 false)
  %5 = load i32, ptr %4, align 16, !tbaa !88
  %6 = getelementptr inbounds nuw i8, ptr %0, i64 84
  %7 = load i32, ptr %6, align 4, !tbaa !89
  %.not = icmp eq i32 %5, %7
  br i1 %.not, label %81, label %8

8:                                                ; preds = %1
  %9 = getelementptr inbounds nuw i8, ptr %0, i64 76
  %10 = load i32, ptr %9, align 4, !tbaa !28
  %11 = tail call ptr @av_pix_fmt_desc_get(i32 noundef %10) #11
  %.not.i = icmp eq ptr %11, null
  br i1 %.not.i, label %12, label %isAnyRGB.exit

12:                                               ; preds = %8
  tail call void (ptr, i32, ptr, ...) @av_log(ptr noundef null, i32 noundef 0, ptr noundef nonnull @.str.1, ptr noundef nonnull @.str.12, ptr noundef nonnull @.str.13, i32 noundef 859) #11
  tail call void @abort() #12
  unreachable

isAnyRGB.exit:                                    ; preds = %8
  %13 = getelementptr inbounds nuw i8, ptr %11, i64 16
  %14 = load i64, ptr %13, align 8, !tbaa !57
  %15 = and i64 %14, 32
  %16 = icmp eq i64 %15, 0
  %17 = add i32 %10, -11
  %18 = icmp ult i32 %17, -2
  %narrow.not = and i1 %18, %16
  br i1 %narrow.not, label %19, label %81

19:                                               ; preds = %isAnyRGB.exit
  %20 = getelementptr inbounds nuw i8, ptr %0, i64 224
  %21 = load i32, ptr %20, align 16, !tbaa !90
  %22 = icmp slt i32 %21, 32
  br i1 %22, label %solve_range_convert.exit.i, label %81

solve_range_convert.exit.i:                       ; preds = %19
  %.not.i21 = icmp eq i32 %21, 0
  %spec.select.i = tail call i32 @llvm.smin.i32(i32 %21, i32 16)
  %23 = select i1 %.not.i21, i32 8, i32 %spec.select.i
  %24 = add nsw i32 %23, -8
  %25 = shl nuw nsw i32 16, %24
  %26 = trunc i32 %25 to i16
  %27 = shl nuw nsw i32 235, %24
  %28 = trunc i32 %27 to i16
  %29 = shl nuw nsw i32 240, %24
  %30 = trunc i32 %29 to i16
  %notmask.i = shl nsw i32 -1, %23
  %31 = trunc i32 %notmask.i to i16
  %32 = xor i16 %31, -1
  %33 = load i32, ptr %4, align 16, !tbaa !88
  %.not45.i = icmp eq i32 %33, 0
  %..i = select i1 %.not45.i, i16 %26, i16 0
  %.46.i = select i1 %.not45.i, i16 %28, i16 %32
  %.47.i = select i1 %.not45.i, i16 %30, i16 %32
  %.48.i = select i1 %.not45.i, i16 0, i16 %26
  %.49.i = select i1 %.not45.i, i16 %32, i16 %28
  %.50.i = select i1 %.not45.i, i16 %32, i16 %30
  %34 = icmp slt i32 %23, 15
  %35 = select i1 %34, i32 14, i32 18
  %36 = select i1 %34, i32 15, i32 19
  %37 = sub nsw i32 %36, %23
  %38 = getelementptr inbounds nuw i8, ptr %0, i64 53128
  %39 = getelementptr inbounds nuw i8, ptr %0, i64 53136
  %40 = add nsw i32 %37, %35
  %41 = zext nneg i32 %40 to i64
  %42 = sub i16 %.49.i, %.48.i
  %43 = zext i16 %42 to i64
  %44 = shl i64 %43, %41
  %45 = sub i16 %.46.i, %..i
  %46 = zext i16 %45 to i64
  %47 = udiv i64 %44, %46
  %48 = sub i64 0, %47
  %49 = zext nneg i32 %37 to i64
  %50 = lshr i64 %48, %49
  %51 = sub i64 0, %50
  %52 = trunc i64 %51 to i32
  store i32 %52, ptr %38, align 4, !tbaa !49
  %53 = zext i16 %.49.i to i64
  %54 = shl i64 %53, %41
  %55 = zext i16 %.46.i to i64
  %56 = shl i64 %55, %49
  %57 = and i64 %51, 4294967295
  %58 = mul nsw i64 %57, %56
  %59 = sub nsw i64 %54, %58
  store i64 %59, ptr %39, align 8, !tbaa !91
  %60 = sub i16 %.50.i, %.48.i
  %61 = zext i16 %60 to i64
  %62 = shl i64 %61, %41
  %63 = sub i16 %.47.i, %..i
  %64 = zext i16 %63 to i64
  %65 = udiv i64 %62, %64
  %66 = sub i64 0, %65
  %67 = zext nneg i32 %37 to i64
  %68 = lshr i64 %66, %67
  %69 = sub i64 0, %68
  %70 = getelementptr inbounds nuw i8, ptr %0, i64 53144
  %71 = getelementptr inbounds nuw i8, ptr %0, i64 53132
  %72 = trunc i64 %69 to i32
  store i32 %72, ptr %71, align 4, !tbaa !49
  %73 = zext i16 %.50.i to i64
  %74 = shl i64 %73, %41
  %75 = zext i16 %.47.i to i64
  %76 = shl i64 %75, %67
  %77 = and i64 %69, 4294967295
  %78 = mul nsw i64 %77, %76
  %79 = sub nsw i64 %74, %78
  store i64 %79, ptr %70, align 8, !tbaa !91
  %80 = icmp slt i32 %21, 15
  %lumRangeToJpeg_c.lumRangeFromJpeg_c = select i1 %.not45.i, ptr @lumRangeToJpeg_c, ptr @lumRangeFromJpeg_c
  %chrRangeToJpeg_c.chrRangeFromJpeg_c = select i1 %.not45.i, ptr @chrRangeToJpeg_c, ptr @chrRangeFromJpeg_c
  %lumRangeToJpeg16_c.lumRangeFromJpeg16_c = select i1 %.not45.i, ptr @lumRangeToJpeg16_c, ptr @lumRangeFromJpeg16_c
  %chrRangeToJpeg16_c.chrRangeFromJpeg16_c = select i1 %.not45.i, ptr @chrRangeToJpeg16_c, ptr @chrRangeFromJpeg16_c
  %lumRangeToJpeg_c.sink = select i1 %80, ptr %lumRangeToJpeg_c.lumRangeFromJpeg_c, ptr %lumRangeToJpeg16_c.lumRangeFromJpeg16_c
  %chrRangeToJpeg_c.sink = select i1 %80, ptr %chrRangeToJpeg_c.chrRangeFromJpeg_c, ptr %chrRangeToJpeg16_c.chrRangeFromJpeg16_c
  store ptr %lumRangeToJpeg_c.sink, ptr %2, align 8, !tbaa !92
  store ptr %chrRangeToJpeg_c.sink, ptr %3, align 16, !tbaa !93
  br label %81

81:                                               ; preds = %solve_range_convert.exit.i, %19, %isAnyRGB.exit, %1
  ret void
}